target datalayout = "e-m:e-p270:32:32-p271:32:32-p272:64:64-i64:64-i128:128-f80:128-n8:16:32:64-S128"
target triple = "x86_64-pc-linux-gnu"

%struct.Abc_Ntk_t_ = type { i32, i32, ptr, ptr, ptr, ptr, ptr, ptr, ptr, ptr, ptr, ptr, ptr, [11 x i32], i32, i32, i32, i32, ptr, i32, ptr, ptr, i32, i32, i32, double, i32, %struct.Vec_Int_t_, ptr, ptr, ptr, ptr, ptr, float, i32, ptr, ptr, ptr, ptr, ptr, ptr, ptr, ptr, ptr, ptr, ptr, ptr, ptr, ptr, ptr, ptr, ptr, ptr, ptr, ptr, ptr }
%struct.Vec_Int_t_ = type { i32, i32, ptr }
%struct.Abc_Obj_t_ = type { ptr, ptr, i32, i32, %struct.Vec_Int_t_, %struct.Vec_Int_t_, %union.anon, %union.anon.0 }
%union.anon = type { ptr }
%union.anon.0 = type { ptr }
%struct.Vec_Ptr_t_ = type { i32, i32, ptr }

; Function Attrs: nounwind uwtable
define internal i32 @Abc_ObjFaninNum(ptr noundef %0) #0 {
  %2 = alloca ptr, align 8
  store ptr %0, ptr %2, align 8
  %3 = load ptr, ptr %2, align 8
  %4 = getelementptr inbounds %struct.Abc_Obj_t_, ptr %3, i32 0, i32 4
  %5 = getelementptr inbounds %struct.Vec_Int_t_, ptr %4, i32 0, i32 1
  %6 = load i32, ptr %5, align 4
  ret i32 %6
}

; Function Attrs: nounwind uwtable
define internal ptr @Vec_PtrEntry(ptr noundef %0, i32 noundef %1) #0 {
  %3 = alloca ptr, align 8
  %4 = alloca i32, align 4
  store ptr %0, ptr %3, align 8
  store i32 %1, ptr %4, align 4
  %5 = load ptr, ptr %3, align 8
  %6 = getelementptr inbounds %struct.Vec_Ptr_t_, ptr %5, i32 0, i32 2
  %7 = load ptr, ptr %6, align 8
  %8 = load i32, ptr %4, align 4
  %9 = sext i32 %8 to i64
  %10 = getelementptr inbounds ptr, ptr %7, i64 %9
  %11 = load ptr, ptr %10, align 8
  ret ptr %11
}

; Function Attrs: nounwind uwtable
define internal ptr @Abc_NtkPo(ptr noundef %0, i32 noundef %1) #0 {
  %3 = alloca ptr, align 8
  %4 = alloca i32, align 4
  store ptr %0, ptr %3, align 8
  store i32 %1, ptr %4, align 4
  %5 = load ptr, ptr %3, align 8
  %6 = getelementptr inbounds %struct.Abc_Ntk_t_, ptr %5, i32 0, i32 7
  %7 = load ptr, ptr %6, align 8
  %8 = load i32, ptr %4, align 4
  %9 = call ptr @Vec_PtrEntry(ptr noundef %7, i32 noundef %8)
  ret ptr %9
}

; Function Attrs: nounwind uwtable
define internal i32 @Abc_ObjFaninC1(ptr noundef %0) #0 {
  %2 = alloca ptr, align 8
  store ptr %0, ptr %2, align 8
  %3 = load ptr, ptr %2, align 8
  %4 = getelementptr inbounds %struct.Abc_Obj_t_, ptr %3, i32 0, i32 3
  %5 = load i32, ptr %4, align 4
  %6 = lshr i32 %5, 11
  %7 = and i32 %6, 1
  ret i32 %7
}

; Function Attrs: nounwind uwtable
define internal ptr @Abc_ObjFanin1(ptr noundef %0) #0 {
  %2 = alloca ptr, align 8
  store ptr %0, ptr %2, align 8
  %3 = load ptr, ptr %2, align 8
  %4 = getelementptr inbounds %struct.Abc_Obj_t_, ptr %3, i32 0, i32 0
  %5 = load ptr, ptr %4, align 8
  %6 = getelementptr inbounds %struct.Abc_Ntk_t_, ptr %5, i32 0, i32 5
  %7 = load ptr, ptr %6, align 8
  %8 = getelementptr inbounds %struct.Vec_Ptr_t_, ptr %7, i32 0, i32 2
  %9 = load ptr, ptr %8, align 8
  %10 = load ptr, ptr %2, align 8
  %11 = getelementptr inbounds %struct.Abc_Obj_t_, ptr %10, i32 0, i32 4
  %12 = getelementptr inbounds %struct.Vec_Int_t_, ptr %11, i32 0, i32 2
  %13 = load ptr, ptr %12, align 8
  %14 = getelementptr inbounds i32, ptr %13, i64 1
  %15 = load i32, ptr %14, align 4
  %16 = sext i32 %15 to i64
  %17 = getelementptr inbounds ptr, ptr %9, i64 %16
  %18 = load ptr, ptr %17, align 8
  ret ptr %18
}

; Function Attrs: nounwind uwtable
define internal i32 @Abc_ObjFaninC0(ptr noundef %0) #0 {
  %2 = alloca ptr, align 8
  store ptr %0, ptr %2, align 8
  %3 = load ptr, ptr %2, align 8
  %4 = getelementptr inbounds %struct.Abc_Obj_t_, ptr %3, i32 0, i32 3
  %5 = load i32, ptr %4, align 4
  %6 = lshr i32 %5, 10
  %7 = and i32 %6, 1
  ret i32 %7
}

; Function Attrs: nounwind uwtable
define internal ptr @Abc_ObjFanin0(ptr noundef %0) #0 {
  %2 = alloca ptr, align 8
  store ptr %0, ptr %2, align 8
  %3 = load ptr, ptr %2, align 8
  %4 = getelementptr inbounds %struct.Abc_Obj_t_, ptr %3, i32 0, i32 0
  %5 = load ptr, ptr %4, align 8
  %6 = getelementptr inbounds %struct.Abc_Ntk_t_, ptr %5, i32 0, i32 5
  %7 = load ptr, ptr %6, align 8
  %8 = getelementptr inbounds %struct.Vec_Ptr_t_, ptr %7, i32 0, i32 2
  %9 = load ptr, ptr %8, align 8
  %10 = load ptr, ptr %2, align 8
  %11 = getelementptr inbounds %struct.Abc_Obj_t_, ptr %10, i32 0, i32 4
  %12 = getelementptr inbounds %struct.Vec_Int_t_, ptr %11, i32 0, i32 2
  %13 = load ptr, ptr %12, align 8
  %14 = getelementptr inbounds i32, ptr %13, i64 0
  %15 = load i32, ptr %14, align 4
  %16 = sext i32 %15 to i64
  %17 = getelementptr inbounds ptr, ptr %9, i64 %16
  %18 = load ptr, ptr %17, align 8
  ret ptr %18
}

; Function Attrs: nounwind uwtable
define internal i32 @Abc_AigNodeIsAnd(ptr noundef %0) #0 {
  %2 = alloca ptr, align 8
  store ptr %0, ptr %2, align 8
  %3 = load ptr, ptr %2, align 8
  %4 = call i32 @Abc_ObjFaninNum(ptr noundef %3)
  %5 = icmp eq i32 %4, 2
  %6 = zext i1 %5 to i32
  ret i32 %6
}

; Function Attrs: nounwind uwtable
define internal ptr @Abc_NtkObj(ptr noundef %0, i32 noundef %1) #0 {
  %3 = alloca ptr, align 8
  %4 = alloca i32, align 4
  store ptr %0, ptr %3, align 8
  store i32 %1, ptr %4, align 4
  %5 = load ptr, ptr %3, align 8
  %6 = getelementptr inbounds %struct.Abc_Ntk_t_, ptr %5, i32 0, i32 5
  %7 = load ptr, ptr %6, align 8
  %8 = load i32, ptr %4, align 4
  %9 = call ptr @Vec_PtrEntry(ptr noundef %7, i32 noundef %8)
  ret ptr %9
}

; Function Attrs: nounwind uwtable
define internal i32 @Vec_PtrSize(ptr noundef %0) #0 {
  %2 = alloca ptr, align 8
  store ptr %0, ptr %2, align 8
  %3 = load ptr, ptr %2, align 8
  %4 = getelementptr inbounds %struct.Vec_Ptr_t_, ptr %3, i32 0, i32 1
  %5 = load i32, ptr %4, align 4
  ret i32 %5
}

; Function Attrs: nounwind uwtable
define internal ptr @Abc_NtkCi(ptr noundef %0, i32 noundef %1) #0 {
  %3 = alloca ptr, align 8
  %4 = alloca i32, align 4
  store ptr %0, ptr %3, align 8
  store i32 %1, ptr %4, align 4
  %5 = load ptr, ptr %3, align 8
  %6 = getelementptr inbounds %struct.Abc_Ntk_t_, ptr %5, i32 0, i32 8
  %7 = load ptr, ptr %6, align 8
  %8 = load i32, ptr %4, align 4
  %9 = call ptr @Vec_PtrEntry(ptr noundef %7, i32 noundef %8)
  ret ptr %9
}

; Function Attrs: nounwind uwtable
define internal i32 @Abc_NtkCiNum(ptr noundef %0) #0 {
  %2 = alloca ptr, align 8
  store ptr %0, ptr %2, align 8
  %3 = load ptr, ptr %2, align 8
  %4 = getelementptr inbounds %struct.Abc_Ntk_t_, ptr %3, i32 0, i32 8
  %5 = load ptr, ptr %4, align 8
  %6 = call i32 @Vec_PtrSize(ptr noundef %5)
  ret i32 %6
}

; Function Attrs: nounwind uwtable
define ptr @Abc_NtkToFraigExdc(ptr noundef %0, ptr noundef %1, ptr noundef %2) #0 {
  %4 = alloca ptr, align 8
  %5 = alloca ptr, align 8
  %6 = alloca ptr, align 8
  %7 = alloca ptr, align 8
  %8 = alloca ptr, align 8
  %9 = alloca ptr, align 8
  %10 = alloca ptr, align 8
  %11 = alloca i32, align 4
  %12 = alloca i32, align 4
  store ptr %0, ptr %4, align 8
  store ptr %1, ptr %5, align 8
  store ptr %2, ptr %6, align 8
  %13 = load ptr, ptr %6, align 8
  %14 = call ptr @Abc_NtkStrash(ptr noundef %13, i32 noundef 0, i32 noundef 0, i32 noundef 0)
  store ptr %14, ptr %7, align 8
  %15 = load ptr, ptr %7, align 8
  call void @Abc_NtkCleanCopy(ptr noundef %15)
  %16 = load ptr, ptr %4, align 8
  %17 = call ptr @Fraig_ManReadConst1(ptr noundef %16)
  %18 = load ptr, ptr %7, align 8
  %19 = call ptr @Abc_AigConst1(ptr noundef %18)
  %20 = getelementptr inbounds %struct.Abc_Obj_t_, ptr %19, i32 0, i32 7
  store ptr %17, ptr %20, align 8
  %21 = load ptr, ptr %5, align 8
  %22 = call ptr @Abc_NtkCollectCioNames(ptr noundef %21, i32 noundef 0)
  store ptr %22, ptr %10, align 8
  store i32 0, ptr %11, align 4
  br label %23

23:                                               ; preds = %61, %3
  %24 = load i32, ptr %11, align 4
  %25 = load ptr, ptr %7, align 8
  %26 = call i32 @Abc_NtkCiNum(ptr noundef %25)
  %27 = icmp slt i32 %24, %26
  br i1 %27, label %28, label %32

28:                                               ; preds = %23
  %29 = load ptr, ptr %7, align 8
  %30 = load i32, ptr %11, align 4
  %31 = call ptr @Abc_NtkCi(ptr noundef %29, i32 noundef %30)
  store ptr %31, ptr %8, align 8
  br label %32

32:                                               ; preds = %28, %23
  %33 = phi i1 [ false, %23 ], [ true, %28 ]
  br i1 %33, label %34, label %64

34:                                               ; preds = %32
  store i32 0, ptr %12, align 4
  br label %35

35:                                               ; preds = %57, %34
  %36 = load i32, ptr %12, align 4
  %37 = load ptr, ptr %5, align 8
  %38 = call i32 @Abc_NtkCiNum(ptr noundef %37)
  %39 = icmp slt i32 %36, %38
  br i1 %39, label %40, label %60

40:                                               ; preds = %35
  %41 = load ptr, ptr %8, align 8
  %42 = call ptr @Abc_ObjName(ptr noundef %41)
  %43 = load ptr, ptr %10, align 8
  %44 = load i32, ptr %12, align 4
  %45 = sext i32 %44 to i64
  %46 = getelementptr inbounds ptr, ptr %43, i64 %45
  %47 = load ptr, ptr %46, align 8
  %48 = call i32 @strcmp(ptr noundef %42, ptr noundef %47) #8
  %49 = icmp eq i32 %48, 0
  br i1 %49, label %50, label %56

50:                                               ; preds = %40
  %51 = load ptr, ptr %4, align 8
  %52 = load i32, ptr %12, align 4
  %53 = call ptr @Fraig_ManReadIthVar(ptr noundef %51, i32 noundef %52)
  %54 = load ptr, ptr %8, align 8
  %55 = getelementptr inbounds %struct.Abc_Obj_t_, ptr %54, i32 0, i32 7
  store ptr %53, ptr %55, align 8
  br label %60

56:                                               ; preds = %40
  br label %57

57:                                               ; preds = %56
  %58 = load i32, ptr %12, align 4
  %59 = add nsw i32 %58, 1
  store i32 %59, ptr %12, align 4
  br label %35, !llvm.loop !20

60:                                               ; preds = %50, %35
  br label %61

61:                                               ; preds = %60
  %62 = load i32, ptr %11, align 4
  %63 = add nsw i32 %62, 1
  store i32 %63, ptr %11, align 4
  br label %23, !llvm.loop !21

64:                                               ; preds = %32
  %65 = load ptr, ptr %10, align 8
  %66 = icmp ne ptr %65, null
  br i1 %66, label %67, label %69

67:                                               ; preds = %64
  %68 = load ptr, ptr %10, align 8
  call void @free(ptr noundef %68) #7
  store ptr null, ptr %10, align 8
  br label %70

69:                                               ; preds = %64
  br label %70

70:                                               ; preds = %69, %67
  store i32 0, ptr %11, align 4
  br label %71

71:                                               ; preds = %118, %70
  %72 = load i32, ptr %11, align 4
  %73 = load ptr, ptr %7, align 8
  %74 = getelementptr inbounds %struct.Abc_Ntk_t_, ptr %73, i32 0, i32 5
  %75 = load ptr, ptr %74, align 8
  %76 = call i32 @Vec_PtrSize(ptr noundef %75)
  %77 = icmp slt i32 %72, %76
  br i1 %77, label %78, label %82

78:                                               ; preds = %71
  %79 = load ptr, ptr %7, align 8
  %80 = load i32, ptr %11, align 4
  %81 = call ptr @Abc_NtkObj(ptr noundef %79, i32 noundef %80)
  store ptr %81, ptr %8, align 8
  br label %82

82:                                               ; preds = %78, %71
  %83 = phi i1 [ false, %71 ], [ true, %78 ]
  br i1 %83, label %84, label %121

84:                                               ; preds = %82
  %85 = load ptr, ptr %8, align 8
  %86 = icmp eq ptr %85, null
  br i1 %86, label %91, label %87

87:                                               ; preds = %84
  %88 = load ptr, ptr %8, align 8
  %89 = call i32 @Abc_AigNodeIsAnd(ptr noundef %88)
  %90 = icmp ne i32 %89, 0
  br i1 %90, label %92, label %91

91:                                               ; preds = %87, %84
  br label %117

92:                                               ; preds = %87
  %93 = load ptr, ptr %4, align 8
  %94 = load ptr, ptr %8, align 8
  %95 = call ptr @Abc_ObjFanin0(ptr noundef %94)
  %96 = getelementptr inbounds %struct.Abc_Obj_t_, ptr %95, i32 0, i32 7
  %97 = load ptr, ptr %96, align 8
  %98 = ptrtoint ptr %97 to i64
  %99 = load ptr, ptr %8, align 8
  %100 = call i32 @Abc_ObjFaninC0(ptr noundef %99)
  %101 = sext i32 %100 to i64
  %102 = xor i64 %98, %101
  %103 = inttoptr i64 %102 to ptr
  %104 = load ptr, ptr %8, align 8
  %105 = call ptr @Abc_ObjFanin1(ptr noundef %104)
  %106 = getelementptr inbounds %struct.Abc_Obj_t_, ptr %105, i32 0, i32 7
  %107 = load ptr, ptr %106, align 8
  %108 = ptrtoint ptr %107 to i64
  %109 = load ptr, ptr %8, align 8
  %110 = call i32 @Abc_ObjFaninC1(ptr noundef %109)
  %111 = sext i32 %110 to i64
  %112 = xor i64 %108, %111
  %113 = inttoptr i64 %112 to ptr
  %114 = call ptr @Fraig_NodeAnd(ptr noundef %93, ptr noundef %103, ptr noundef %113)
  %115 = load ptr, ptr %8, align 8
  %116 = getelementptr inbounds %struct.Abc_Obj_t_, ptr %115, i32 0, i32 7
  store ptr %114, ptr %116, align 8
  br label %117

117:                                              ; preds = %92, %91
  br label %118

118:                                              ; preds = %117
  %119 = load i32, ptr %11, align 4
  %120 = add nsw i32 %119, 1
  store i32 %120, ptr %11, align 4
  br label %71, !llvm.loop !22

121:                                              ; preds = %82
  %122 = load ptr, ptr %7, align 8
  %123 = call ptr @Abc_NtkPo(ptr noundef %122, i32 noundef 0)
  store ptr %123, ptr %8, align 8
  %124 = load ptr, ptr %8, align 8
  %125 = call ptr @Abc_ObjFanin0(ptr noundef %124)
  %126 = getelementptr inbounds %struct.Abc_Obj_t_, ptr %125, i32 0, i32 7
  %127 = load ptr, ptr %126, align 8
  %128 = ptrtoint ptr %127 to i64
  %129 = load ptr, ptr %8, align 8
  %130 = call i32 @Abc_ObjFaninC0(ptr noundef %129)
  %131 = sext i32 %130 to i64
  %132 = xor i64 %128, %131
  %133 = inttoptr i64 %132 to ptr
  store ptr %133, ptr %9, align 8
  %134 = load ptr, ptr %7, align 8
  call void @Abc_NtkDelete(ptr noundef %134)
  %135 = load ptr, ptr %9, align 8
  ret ptr %135
}