; Function Attrs: nounwind uwtable
define ptr @Abc_NtkToFraigExdc(ptr noundef %0, ptr noundef %1, ptr noundef %2) local_unnamed_addr #0 {
  %4 = tail call ptr @Abc_NtkStrash(ptr noundef %2, i32 noundef 0, i32 noundef 0, i32 noundef 0) #11
  tail call void @Abc_NtkCleanCopy(ptr noundef %4) #11
  %5 = tail call ptr @Fraig_ManReadConst1(ptr noundef %0) #11
  %6 = tail call ptr @Abc_AigConst1(ptr noundef %4) #11
  %7 = getelementptr inbounds nuw i8, ptr %6, i64 64
  store ptr %5, ptr %7, align 8
  %8 = tail call ptr @Abc_NtkCollectCioNames(ptr noundef %1, i32 noundef 0) #11
  %9 = getelementptr i8, ptr %4, i64 56
  %.val4564 = load ptr, ptr %9, align 8
  %10 = getelementptr i8, ptr %.val4564, i64 4
  %.val45.val65 = load i32, ptr %10, align 4
  %11 = icmp sgt i32 %.val45.val65, 0
  br i1 %11, label %.lr.ph68, label %.critedge

.lr.ph68:                                         ; preds = %3
  %12 = getelementptr i8, ptr %1, i64 56
  %13 = load ptr, ptr %12, align 8
  %14 = getelementptr i8, ptr %13, i64 4
  %15 = load i32, ptr %14, align 4
  %16 = icmp sgt i32 %15, 0
  br i1 %16, label %.lr.ph68.split, label %.critedge

.lr.ph68.split:                                   ; preds = %.lr.ph68, %.loopexit
  %indvars.iv75 = phi i64 [ %indvars.iv.next76, %.loopexit ], [ 0, %.lr.ph68 ]
  %.val4567 = phi ptr [ %.val45, %.loopexit ], [ %.val4564, %.lr.ph68 ]
  %17 = getelementptr i8, ptr %.val4567, i64 8
  %.val46.val = load ptr, ptr %17, align 8
  %18 = getelementptr inbounds nuw ptr, ptr %.val46.val, i64 %indvars.iv75
  %19 = load ptr, ptr %18, align 8
  %.val4461 = load ptr, ptr %12, align 8
  %20 = getelementptr i8, ptr %.val4461, i64 4
  %.val44.val62 = load i32, ptr %20, align 4
  %21 = icmp sgt i32 %.val44.val62, 0
  br i1 %21, label %.lr.ph, label %.loopexit

.lr.ph:                                           ; preds = %.lr.ph68.split, %31
  %indvars.iv = phi i64 [ %indvars.iv.next, %31 ], [ 0, %.lr.ph68.split ]
  %22 = tail call ptr @Abc_ObjName(ptr noundef %19) #11
  %23 = getelementptr inbounds nuw ptr, ptr %8, i64 %indvars.iv
  %24 = load ptr, ptr %23, align 8
  %25 = tail call i32 @strcmp(ptr noundef nonnull dereferenceable(1) %22, ptr noundef nonnull dereferenceable(1) %24) #13
  %26 = icmp eq i32 %25, 0
  br i1 %26, label %27, label %31

27:                                               ; preds = %.lr.ph
  %28 = trunc nuw nsw i64 %indvars.iv to i32
  %29 = tail call ptr @Fraig_ManReadIthVar(ptr noundef %0, i32 noundef %28) #11
  %30 = getelementptr inbounds nuw i8, ptr %19, i64 64
  store ptr %29, ptr %30, align 8
  br label %.loopexit

31:                                               ; preds = %.lr.ph
  %indvars.iv.next = add nuw nsw i64 %indvars.iv, 1
  %.val44 = load ptr, ptr %12, align 8
  %32 = getelementptr i8, ptr %.val44, i64 4
  %.val44.val = load i32, ptr %32, align 4
  %33 = sext i32 %.val44.val to i64
  %34 = icmp slt i64 %indvars.iv.next, %33
  br i1 %34, label %.lr.ph, label %.loopexit, !llvm.loop !21

.loopexit:                                        ; preds = %31, %.lr.ph68.split, %27
  %indvars.iv.next76 = add nuw nsw i64 %indvars.iv75, 1
  %.val45 = load ptr, ptr %9, align 8
  %35 = getelementptr i8, ptr %.val45, i64 4
  %.val45.val = load i32, ptr %35, align 4
  %36 = sext i32 %.val45.val to i64
  %37 = icmp slt i64 %indvars.iv.next76, %36
  br i1 %37, label %.lr.ph68.split, label %.critedge, !llvm.loop !22

.critedge:                                        ; preds = %.loopexit, %.lr.ph68, %3
  %.not = icmp eq ptr %8, null
  br i1 %.not, label %39, label %38

38:                                               ; preds = %.critedge
  tail call void @free(ptr noundef nonnull %8) #11
  br label %39

39:                                               ; preds = %.critedge, %38
  %40 = getelementptr inbounds nuw i8, ptr %4, i64 32
  %41 = load ptr, ptr %40, align 8
  %42 = getelementptr i8, ptr %41, i64 4
  %.val69 = load i32, ptr %42, align 4
  %43 = icmp sgt i32 %.val69, 0
  br i1 %43, label %.lr.ph71, label %.critedge2

.lr.ph71:                                         ; preds = %39, %81
  %44 = phi ptr [ %82, %81 ], [ %41, %39 ]
  %indvars.iv78 = phi i64 [ %indvars.iv.next79, %81 ], [ 0, %39 ]
  %45 = getelementptr i8, ptr %44, i64 8
  %.val56.val = load ptr, ptr %45, align 8
  %46 = getelementptr inbounds nuw ptr, ptr %.val56.val, i64 %indvars.iv78
  %47 = load ptr, ptr %46, align 8
  %48 = icmp eq ptr %47, null
  br i1 %48, label %81, label %49

49:                                               ; preds = %.lr.ph71
  %50 = getelementptr i8, ptr %47, i64 28
  %.val57 = load i32, ptr %50, align 4
  %.not59 = icmp eq i32 %.val57, 2
  br i1 %.not59, label %51, label %81

51:                                               ; preds = %49
  %.val49 = load ptr, ptr %47, align 8
  %52 = getelementptr i8, ptr %47, i64 32
  %.val50 = load ptr, ptr %52, align 8
  %53 = getelementptr i8, ptr %.val49, i64 32
  %.val49.val = load ptr, ptr %53, align 8
  %.val50.val = load i32, ptr %.val50, align 4
  %54 = getelementptr i8, ptr %.val49.val, i64 8
  %.val49.val.val = load ptr, ptr %54, align 8
  %55 = sext i32 %.val50.val to i64
  %56 = getelementptr inbounds ptr, ptr %.val49.val.val, i64 %55
  %57 = load ptr, ptr %56, align 8
  %58 = getelementptr inbounds nuw i8, ptr %57, i64 64
  %59 = load ptr, ptr %58, align 8
  %60 = ptrtoint ptr %59 to i64
  %61 = getelementptr i8, ptr %47, i64 20
  %.val52 = load i32, ptr %61, align 4
  %62 = lshr i32 %.val52, 10
  %63 = and i32 %62, 1
  %64 = zext nneg i32 %63 to i64
  %65 = xor i64 %64, %60
  %66 = inttoptr i64 %65 to ptr
  %67 = getelementptr i8, ptr %.val50, i64 4
  %.val54.val = load i32, ptr %67, align 4
  %68 = sext i32 %.val54.val to i64
  %69 = getelementptr inbounds ptr, ptr %.val49.val.val, i64 %68
  %70 = load ptr, ptr %69, align 8
  %71 = getelementptr inbounds nuw i8, ptr %70, i64 64
  %72 = load ptr, ptr %71, align 8
  %73 = ptrtoint ptr %72 to i64
  %74 = lshr i32 %.val52, 11
  %75 = and i32 %74, 1
  %76 = zext nneg i32 %75 to i64
  %77 = xor i64 %73, %76
  %78 = inttoptr i64 %77 to ptr
  %79 = tail call ptr @Fraig_NodeAnd(ptr noundef %0, ptr noundef %66, ptr noundef %78) #11
  %80 = getelementptr inbounds nuw i8, ptr %47, i64 64
  store ptr %79, ptr %80, align 8
  %.pre = load ptr, ptr %40, align 8
  br label %81

81:                                               ; preds = %51, %49, %.lr.ph71
  %82 = phi ptr [ %.pre, %51 ], [ %44, %49 ], [ %44, %.lr.ph71 ]
  %indvars.iv.next79 = add nuw nsw i64 %indvars.iv78, 1
  %83 = getelementptr i8, ptr %82, i64 4
  %.val = load i32, ptr %83, align 4
  %84 = sext i32 %.val to i64
  %85 = icmp slt i64 %indvars.iv.next79, %84
  br i1 %85, label %.lr.ph71, label %.critedge2, !llvm.loop !24

.critedge2:                                       ; preds = %81, %39
  %86 = getelementptr i8, ptr %4, i64 48
  %.val58 = load ptr, ptr %86, align 8
  %87 = getelementptr i8, ptr %.val58, i64 8
  %.val58.val = load ptr, ptr %87, align 8
  %88 = load ptr, ptr %.val58.val, align 8
  %.val47 = load ptr, ptr %88, align 8
  %89 = getelementptr i8, ptr %88, i64 32
  %.val48 = load ptr, ptr %89, align 8
  %90 = getelementptr i8, ptr %.val47, i64 32
  %.val47.val = load ptr, ptr %90, align 8
  %.val48.val = load i32, ptr %.val48, align 4
  %91 = getelementptr i8, ptr %.val47.val, i64 8
  %.val47.val.val = load ptr, ptr %91, align 8
  %92 = sext i32 %.val48.val to i64
  %93 = getelementptr inbounds ptr, ptr %.val47.val.val, i64 %92
  %94 = load ptr, ptr %93, align 8
  %95 = getelementptr inbounds nuw i8, ptr %94, i64 64
  %96 = load ptr, ptr %95, align 8
  %97 = ptrtoint ptr %96 to i64
  %98 = getelementptr i8, ptr %88, i64 20
  %.val51 = load i32, ptr %98, align 4
  %99 = lshr i32 %.val51, 10
  %100 = and i32 %99, 1
  %101 = zext nneg i32 %100 to i64
  %102 = xor i64 %101, %97
  %103 = inttoptr i64 %102 to ptr
  tail call void @Abc_NtkDelete(ptr noundef nonnull %4) #11
  ret ptr %103
}